target datalayout = "e-m:e-p270:32:32-p271:32:32-p272:64:64-i64:64-i128:128-f80:128-n8:16:32:64-S128"
target triple = "x86_64-pc-linux-gnu"

%struct._value_string = type { i32, ptr }
%struct._packet_info = type { ptr, ptr, i32, i32, %struct.nstime_t, %struct.nstime_t, %struct.nstime_t, i32, ptr, ptr, ptr, ptr, %struct._address, %struct._address, %struct._address, %struct._address, %struct._address, %struct._address, i32, ptr, i32, %struct.anon, i32, i32, i32, i32, ptr, i32, ptr, ptr, i16, i16, i32, i32, i16, i32, i32, ptr, ptr, ptr, i8, i8, i16, i16, i16, i32, i16, i16, ptr, ptr, ptr, ptr, ptr, i32 }
%struct.nstime_t = type { i64, i32 }
%struct._address = type { i32, i32, ptr, ptr }
%struct.anon = type { i8, [3 x i8] }

@hf_uci_status = internal global i32 0, align 4
@hf_uci_parameters_count = internal global i32 0, align 4
@hf_uci_parameter_type = internal global i32 0, align 4
@parameter_type_vals = internal constant [3 x %struct._value_string] [%struct._value_string { i32 0, ptr @.str.14 }, %struct._value_string { i32 1, ptr @.str.193 }, %struct._value_string zeroinitializer], align 16
@hf_uci_parameter_status = internal global i32 0, align 4
@ett_uci_parameters = internal global i32 0, align 4
@ett_uci_parameter = internal global i32 0, align 4
@.str.280 = private unnamed_addr constant [17 x i8] c"Unknown (0x%02x)\00", align 1
@.str.284 = private unnamed_addr constant [11 x i8] c"Parameters\00", align 1
@.str.286 = private unnamed_addr constant [20 x i8] c"Core Set Config Rsp\00", align 1

; Function Attrs: nounwind uwtable
define internal void @dissect_core_set_config_rsp(ptr noundef %0, i32 noundef %1, ptr noundef %2, ptr noundef %3) #0 {
  %5 = alloca ptr, align 8
  %6 = alloca i32, align 4
  %7 = alloca ptr, align 8
  %8 = alloca ptr, align 8
  %9 = alloca i32, align 4
  %10 = alloca ptr, align 8
  %11 = alloca i32, align 4
  %12 = alloca i32, align 4
  %13 = alloca ptr, align 8
  store ptr %0, ptr %5, align 8
  store i32 %1, ptr %6, align 4
  store ptr %2, ptr %7, align 8
  store ptr %3, ptr %8, align 8
  %14 = load ptr, ptr %7, align 8
  %15 = getelementptr inbounds %struct._packet_info, ptr %14, i32 0, i32 1
  %16 = load ptr, ptr %15, align 8
  call void (ptr, i32, ptr, ...) @col_add_fstr(ptr noundef %16, i32 noundef 25, ptr noundef @.str.286)
  %17 = load ptr, ptr %8, align 8
  %18 = load i32, ptr @hf_uci_status, align 4
  %19 = load ptr, ptr %5, align 8
  %20 = load i32, ptr %6, align 4
  %21 = call ptr @proto_tree_add_item(ptr noundef %17, i32 noundef %18, ptr noundef %19, i32 noundef %20, i32 noundef 1, i32 noundef 0)
  %22 = load i32, ptr %6, align 4
  %23 = add i32 %22, 1
  store i32 %23, ptr %6, align 4
  %24 = load ptr, ptr %5, align 8
  %25 = load i32, ptr %6, align 4
  %26 = call zeroext i8 @tvb_get_guint8(ptr noundef %24, i32 noundef %25)
  %27 = zext i8 %26 to i32
  store i32 %27, ptr %9, align 4
  %28 = load ptr, ptr %8, align 8
  %29 = load i32, ptr @hf_uci_parameters_count, align 4
  %30 = load ptr, ptr %5, align 8
  %31 = load i32, ptr %6, align 4
  %32 = call ptr @proto_tree_add_item(ptr noundef %28, i32 noundef %29, ptr noundef %30, i32 noundef %31, i32 noundef 1, i32 noundef 0)
  %33 = load i32, ptr %6, align 4
  %34 = add i32 %33, 1
  store i32 %34, ptr %6, align 4
  %35 = load i32, ptr %9, align 4
  %36 = icmp eq i32 %35, 0
  br i1 %36, label %37, label %38

37:                                               ; preds = %4
  br label %78

38:                                               ; preds = %4
  %39 = load ptr, ptr %8, align 8
  %40 = load ptr, ptr %5, align 8
  %41 = load i32, ptr %6, align 4
  %42 = load i32, ptr @ett_uci_parameters, align 4
  %43 = call ptr @proto_tree_add_subtree(ptr noundef %39, ptr noundef %40, i32 noundef %41, i32 noundef -1, i32 noundef %42, ptr noundef null, ptr noundef @.str.284)
  store ptr %43, ptr %10, align 8
  store i32 0, ptr %11, align 4
  br label %44

44:                                               ; preds = %75, %38
  %45 = load i32, ptr %11, align 4
  %46 = load i32, ptr %9, align 4
  %47 = icmp slt i32 %45, %46
  br i1 %47, label %48, label %78

48:                                               ; preds = %44
  %49 = load ptr, ptr %5, align 8
  %50 = load i32, ptr %6, align 4
  %51 = add i32 %50, 0
  %52 = call zeroext i8 @tvb_get_guint8(ptr noundef %49, i32 noundef %51)
  %53 = zext i8 %52 to i32
  store i32 %53, ptr %12, align 4
  %54 = load ptr, ptr %10, align 8
  %55 = load ptr, ptr %5, align 8
  %56 = load i32, ptr %6, align 4
  %57 = load i32, ptr @ett_uci_parameter, align 4
  %58 = load i32, ptr %12, align 4
  %59 = call ptr @val_to_str(i32 noundef %58, ptr noundef @parameter_type_vals, ptr noundef @.str.280)
  %60 = call ptr @proto_tree_add_subtree(ptr noundef %54, ptr noundef %55, i32 noundef %56, i32 noundef 2, i32 noundef %57, ptr noundef null, ptr noundef %59)
  store ptr %60, ptr %13, align 8
  %61 = load ptr, ptr %13, align 8
  %62 = load i32, ptr @hf_uci_parameter_type, align 4
  %63 = load ptr, ptr %5, align 8
  %64 = load i32, ptr %6, align 4
  %65 = call ptr @proto_tree_add_item(ptr noundef %61, i32 noundef %62, ptr noundef %63, i32 noundef %64, i32 noundef 1, i32 noundef 0)
  %66 = load i32, ptr %6, align 4
  %67 = add i32 %66, 1
  store i32 %67, ptr %6, align 4
  %68 = load ptr, ptr %13, align 8
  %69 = load i32, ptr @hf_uci_parameter_status, align 4
  %70 = load ptr, ptr %5, align 8
  %71 = load i32, ptr %6, align 4
  %72 = call ptr @proto_tree_add_item(ptr noundef %68, i32 noundef %69, ptr noundef %70, i32 noundef %71, i32 noundef 1, i32 noundef 0)
  %73 = load i32, ptr %6, align 4
  %74 = add i32 %73, 1
  store i32 %74, ptr %6, align 4
  br label %75

75:                                               ; preds = %48
  %76 = load i32, ptr %11, align 4
  %77 = add i32 %76, 1
  store i32 %77, ptr %11, align 4
  br label %44, !llvm.loop !7

78:                                               ; preds = %44, %37
  ret void
}